target datalayout = "e-m:e-p270:32:32-p271:32:32-p272:64:64-i64:64-i128:128-f80:128-n8:16:32:64-S128"
target triple = "x86_64-pc-linux-gnu"

%"class.icu_77::CollationIterator::CEBuffer" = type { i32, %"class.icu_77::MaybeStackArray.0" }
%"class.icu_77::MaybeStackArray.0" = type { ptr, i32, i8, [40 x i64] }
%"class.icu_77::CollationIterator" = type <{ %"class.icu_77::UObject", ptr, ptr, %"class.icu_77::CollationIterator::CEBuffer", i32, [4 x i8], ptr, i32, i8, [3 x i8] }>
%"class.icu_77::UObject" = type { ptr }
%"class.icu_77::UVector32" = type { %"class.icu_77::UObject", i32, i32, i32, ptr }

; Function Attrs: mustprogress nounwind uwtable
define linkonce_odr noundef nonnull align 8 dereferenceable(8) ptr @_ZNK6icu_7715MaybeStackArrayIlLi40EEixEl(ptr noundef nonnull align 8 dereferenceable(336) %0, i64 noundef %1) #0 comdat align 2 {
  %3 = alloca ptr, align 8
  %4 = alloca i64, align 8
  store ptr %0, ptr %3, align 8, !tbaa !25
  store i64 %1, ptr %4, align 8, !tbaa !18
  %5 = load ptr, ptr %3, align 8
  %6 = getelementptr inbounds nuw %"class.icu_77::MaybeStackArray.0", ptr %5, i32 0, i32 0
  %7 = load ptr, ptr %6, align 8, !tbaa !35
  %8 = load i64, ptr %4, align 8, !tbaa !18
  %9 = getelementptr inbounds i64, ptr %7, i64 %8
  ret ptr %9
}

; Function Attrs: inlinehint mustprogress uwtable
define linkonce_odr noundef signext i8 @_ZN6icu_779UVector3214ensureCapacityEiR10UErrorCode(ptr noundef nonnull align 8 dereferenceable(32) %0, i32 noundef %1, ptr noundef nonnull align 4 dereferenceable(4) %2) #3 comdat align 2 {
  %4 = alloca i8, align 1
  %5 = alloca ptr, align 8
  %6 = alloca i32, align 4
  %7 = alloca ptr, align 8
  store ptr %0, ptr %5, align 8, !tbaa !129
  store i32 %1, ptr %6, align 4, !tbaa !14
  store ptr %2, ptr %7, align 8, !tbaa !22
  %8 = load ptr, ptr %5, align 8
  %9 = load i32, ptr %6, align 4, !tbaa !14
  %10 = icmp sge i32 %9, 0
  br i1 %10, label %11, label %17

11:                                               ; preds = %3
  %12 = getelementptr inbounds nuw %"class.icu_77::UVector32", ptr %8, i32 0, i32 2
  %13 = load i32, ptr %12, align 4, !tbaa !157
  %14 = load i32, ptr %6, align 4, !tbaa !14
  %15 = icmp sge i32 %13, %14
  br i1 %15, label %16, label %17

16:                                               ; preds = %11
  store i8 1, ptr %4, align 1
  br label %21

17:                                               ; preds = %11, %3
  %18 = load i32, ptr %6, align 4, !tbaa !14
  %19 = load ptr, ptr %7, align 8, !tbaa !22
  %20 = call noundef signext i8 @_ZN6icu_779UVector3214expandCapacityEiR10UErrorCode(ptr noundef nonnull align 8 dereferenceable(32) %8, i32 noundef %18, ptr noundef nonnull align 4 dereferenceable(4) %19)
  store i8 %20, ptr %4, align 1
  br label %21

21:                                               ; preds = %17, %16
  %22 = load i8, ptr %4, align 1
  ret i8 %22
}

; Function Attrs: inlinehint mustprogress uwtable
define linkonce_odr noundef i64 @_ZNK6icu_7717CollationIterator8CEBuffer3getEi(ptr noundef nonnull align 8 dereferenceable(344) %0, i32 noundef %1) #3 comdat align 2 {
  %3 = alloca ptr, align 8
  %4 = alloca i32, align 4
  store ptr %0, ptr %3, align 8, !tbaa !23
  store i32 %1, ptr %4, align 4, !tbaa !14
  %5 = load ptr, ptr %3, align 8
  %6 = getelementptr inbounds nuw %"class.icu_77::CollationIterator::CEBuffer", ptr %5, i32 0, i32 1
  %7 = load i32, ptr %4, align 4, !tbaa !14
  %8 = sext i32 %7 to i64
  %9 = call noundef nonnull align 8 dereferenceable(8) ptr @_ZNK6icu_7715MaybeStackArrayIlLi40EEixEl(ptr noundef nonnull align 8 dereferenceable(336) %6, i64 noundef %8)
  %10 = load i64, ptr %9, align 8, !tbaa !18
  ret i64 %10
}

; Function Attrs: inlinehint mustprogress nounwind uwtable
define internal noundef signext i8 @_ZL9U_SUCCESS10UErrorCode(i32 noundef %0) #2 {
  %2 = alloca i32, align 4
  store i32 %0, ptr %2, align 4, !tbaa !15
  %3 = load i32, ptr %2, align 4, !tbaa !15
  %4 = icmp sle i32 %3, 0
  %5 = zext i1 %4 to i8
  ret i8 %5
}

; Function Attrs: inlinehint mustprogress nounwind uwtable
define linkonce_odr noundef i32 @_ZNK6icu_779UVector324sizeEv(ptr noundef nonnull align 8 dereferenceable(32) %0) #2 comdat align 2 {
  %2 = alloca ptr, align 8
  store ptr %0, ptr %2, align 8, !tbaa !129
  %3 = load ptr, ptr %2, align 8
  %4 = getelementptr inbounds nuw %"class.icu_77::UVector32", ptr %3, i32 0, i32 1
  %5 = load i32, ptr %4, align 8, !tbaa !136
  ret i32 %5
}

; Function Attrs: inlinehint mustprogress uwtable
define linkonce_odr void @_ZN6icu_779UVector3210addElementEiR10UErrorCode(ptr noundef nonnull align 8 dereferenceable(32) %0, i32 noundef %1, ptr noundef nonnull align 4 dereferenceable(4) %2) #3 comdat align 2 {
  %4 = alloca ptr, align 8
  %5 = alloca i32, align 4
  %6 = alloca ptr, align 8
  store ptr %0, ptr %4, align 8, !tbaa !129
  store i32 %1, ptr %5, align 4, !tbaa !14
  store ptr %2, ptr %6, align 8, !tbaa !22
  %7 = load ptr, ptr %4, align 8
  %8 = getelementptr inbounds nuw %"class.icu_77::UVector32", ptr %7, i32 0, i32 1
  %9 = load i32, ptr %8, align 8, !tbaa !136
  %10 = add nsw i32 %9, 1
  %11 = load ptr, ptr %6, align 8, !tbaa !22
  %12 = call noundef signext i8 @_ZN6icu_779UVector3214ensureCapacityEiR10UErrorCode(ptr noundef nonnull align 8 dereferenceable(32) %7, i32 noundef %10, ptr noundef nonnull align 4 dereferenceable(4) %11)
  %13 = icmp ne i8 %12, 0
  br i1 %13, label %14, label %25

14:                                               ; preds = %3
  %15 = load i32, ptr %5, align 4, !tbaa !14
  %16 = getelementptr inbounds nuw %"class.icu_77::UVector32", ptr %7, i32 0, i32 4
  %17 = load ptr, ptr %16, align 8, !tbaa !138
  %18 = getelementptr inbounds nuw %"class.icu_77::UVector32", ptr %7, i32 0, i32 1
  %19 = load i32, ptr %18, align 8, !tbaa !136
  %20 = sext i32 %19 to i64
  %21 = getelementptr inbounds i32, ptr %17, i64 %20
  store i32 %15, ptr %21, align 4, !tbaa !14
  %22 = getelementptr inbounds nuw %"class.icu_77::UVector32", ptr %7, i32 0, i32 1
  %23 = load i32, ptr %22, align 8, !tbaa !136
  %24 = add nsw i32 %23, 1
  store i32 %24, ptr %22, align 8, !tbaa !136
  br label %25

25:                                               ; preds = %14, %3
  ret void
}

; Function Attrs: mustprogress uwtable
define noundef i64 @_ZN6icu_7717CollationIterator16previousCEUnsafeEiRNS_9UVector32ER10UErrorCode(ptr noundef nonnull align 8 dereferenceable(389) %0, i32 noundef %1, ptr noundef nonnull align 8 dereferenceable(32) %2, ptr noundef nonnull align 4 dereferenceable(4) %3) #1 align 2 {
  %5 = alloca i64, align 8
  %6 = alloca ptr, align 8
  %7 = alloca i32, align 4
  %8 = alloca ptr, align 8
  %9 = alloca ptr, align 8
  %10 = alloca i32, align 4
  %11 = alloca i32, align 4
  %12 = alloca i32, align 4
  store ptr %0, ptr %6, align 8, !tbaa !37
  store i32 %1, ptr %7, align 4, !tbaa !14
  store ptr %2, ptr %8, align 8, !tbaa !129
  store ptr %3, ptr %9, align 8, !tbaa !22
  %13 = load ptr, ptr %6, align 8
  call void @llvm.lifetime.start.p0(i64 4, ptr %10) #11
  store i32 1, ptr %10, align 4, !tbaa !14
  br label %14

14:                                               ; preds = %32, %4
  %15 = load ptr, ptr %9, align 8, !tbaa !22
  %16 = load ptr, ptr %13, align 8, !tbaa !39
  %17 = getelementptr inbounds ptr, ptr %16, i64 7
  %18 = load ptr, ptr %17, align 8
  %19 = call noundef i32 %18(ptr noundef nonnull align 8 dereferenceable(389) %13, ptr noundef nonnull align 4 dereferenceable(4) %15)
  store i32 %19, ptr %7, align 4, !tbaa !14
  %20 = icmp sge i32 %19, 0
  br i1 %20, label %21, label %33

21:                                               ; preds = %14
  %22 = load i32, ptr %10, align 4, !tbaa !14
  %23 = add nsw i32 %22, 1
  store i32 %23, ptr %10, align 4, !tbaa !14
  %24 = getelementptr inbounds nuw %"class.icu_77::CollationIterator", ptr %13, i32 0, i32 2
  %25 = load ptr, ptr %24, align 8, !tbaa !47
  %26 = load i32, ptr %7, align 4, !tbaa !14
  %27 = getelementptr inbounds nuw %"class.icu_77::CollationIterator", ptr %13, i32 0, i32 8
  %28 = load i8, ptr %27, align 4, !tbaa !51
  %29 = call noundef signext i8 @_ZNK6icu_7713CollationData16isUnsafeBackwardEia(ptr noundef nonnull align 8 dereferenceable(140) %25, i32 noundef %26, i8 noundef signext %28)
  %30 = icmp ne i8 %29, 0
  br i1 %30, label %32, label %31

31:                                               ; preds = %21
  br label %33

32:                                               ; preds = %21
  br label %14, !llvm.loop !133

33:                                               ; preds = %31, %14
  %34 = load i32, ptr %10, align 4, !tbaa !14
  %35 = getelementptr inbounds nuw %"class.icu_77::CollationIterator", ptr %13, i32 0, i32 7
  store i32 %34, ptr %35, align 8, !tbaa !50
  %36 = getelementptr inbounds nuw %"class.icu_77::CollationIterator", ptr %13, i32 0, i32 4
  store i32 0, ptr %36, align 8, !tbaa !48
  call void @llvm.lifetime.start.p0(i64 4, ptr %11) #11
  %37 = load ptr, ptr %13, align 8, !tbaa !39
  %38 = getelementptr inbounds ptr, ptr %37, i64 5
  %39 = load ptr, ptr %38, align 8
  %40 = call noundef i32 %39(ptr noundef nonnull align 8 dereferenceable(389) %13)
  store i32 %40, ptr %11, align 4, !tbaa !14
  br label %41

41:                                               ; preds = %73, %33
  %42 = getelementptr inbounds nuw %"class.icu_77::CollationIterator", ptr %13, i32 0, i32 7
  %43 = load i32, ptr %42, align 8, !tbaa !50
  %44 = icmp sgt i32 %43, 0
  br i1 %44, label %45, label %74

45:                                               ; preds = %41
  %46 = getelementptr inbounds nuw %"class.icu_77::CollationIterator", ptr %13, i32 0, i32 7
  %47 = load i32, ptr %46, align 8, !tbaa !50
  %48 = add nsw i32 %47, -1
  store i32 %48, ptr %46, align 8, !tbaa !50
  %49 = load ptr, ptr %9, align 8, !tbaa !22
  %50 = call noundef i64 @_ZN6icu_7717CollationIterator6nextCEER10UErrorCode(ptr noundef nonnull align 8 dereferenceable(389) %13, ptr noundef nonnull align 4 dereferenceable(4) %49)
  %51 = getelementptr inbounds nuw %"class.icu_77::CollationIterator", ptr %13, i32 0, i32 3
  %52 = getelementptr inbounds nuw %"class.icu_77::CollationIterator::CEBuffer", ptr %51, i32 0, i32 0
  %53 = load i32, ptr %52, align 8, !tbaa !52
  %54 = getelementptr inbounds nuw %"class.icu_77::CollationIterator", ptr %13, i32 0, i32 4
  store i32 %53, ptr %54, align 8, !tbaa !48
  %55 = load ptr, ptr %8, align 8, !tbaa !129
  %56 = load i32, ptr %11, align 4, !tbaa !14
  %57 = load ptr, ptr %9, align 8, !tbaa !22
  call void @_ZN6icu_779UVector3210addElementEiR10UErrorCode(ptr noundef nonnull align 8 dereferenceable(32) %55, i32 noundef %56, ptr noundef nonnull align 4 dereferenceable(4) %57)
  %58 = load ptr, ptr %13, align 8, !tbaa !39
  %59 = getelementptr inbounds ptr, ptr %58, i64 5
  %60 = load ptr, ptr %59, align 8
  %61 = call noundef i32 %60(ptr noundef nonnull align 8 dereferenceable(389) %13)
  store i32 %61, ptr %11, align 4, !tbaa !14
  br label %62

62:                                               ; preds = %69, %45
  %63 = load ptr, ptr %8, align 8, !tbaa !129
  %64 = call noundef i32 @_ZNK6icu_779UVector324sizeEv(ptr noundef nonnull align 8 dereferenceable(32) %63)
  %65 = getelementptr inbounds nuw %"class.icu_77::CollationIterator", ptr %13, i32 0, i32 3
  %66 = getelementptr inbounds nuw %"class.icu_77::CollationIterator::CEBuffer", ptr %65, i32 0, i32 0
  %67 = load i32, ptr %66, align 8, !tbaa !52
  %68 = icmp slt i32 %64, %67
  br i1 %68, label %69, label %73

69:                                               ; preds = %62
  %70 = load ptr, ptr %8, align 8, !tbaa !129
  %71 = load i32, ptr %11, align 4, !tbaa !14
  %72 = load ptr, ptr %9, align 8, !tbaa !22
  call void @_ZN6icu_779UVector3210addElementEiR10UErrorCode(ptr noundef nonnull align 8 dereferenceable(32) %70, i32 noundef %71, ptr noundef nonnull align 4 dereferenceable(4) %72)
  br label %62, !llvm.loop !134

73:                                               ; preds = %62
  br label %41, !llvm.loop !135

74:                                               ; preds = %41
  %75 = load ptr, ptr %8, align 8, !tbaa !129
  %76 = load i32, ptr %11, align 4, !tbaa !14
  %77 = load ptr, ptr %9, align 8, !tbaa !22
  call void @_ZN6icu_779UVector3210addElementEiR10UErrorCode(ptr noundef nonnull align 8 dereferenceable(32) %75, i32 noundef %76, ptr noundef nonnull align 4 dereferenceable(4) %77)
  %78 = getelementptr inbounds nuw %"class.icu_77::CollationIterator", ptr %13, i32 0, i32 7
  store i32 -1, ptr %78, align 8, !tbaa !50
  %79 = load i32, ptr %10, align 4, !tbaa !14
  %80 = load ptr, ptr %9, align 8, !tbaa !22
  %81 = load ptr, ptr %13, align 8, !tbaa !39
  %82 = getelementptr inbounds ptr, ptr %81, i64 13
  %83 = load ptr, ptr %82, align 8
  call void %83(ptr noundef nonnull align 8 dereferenceable(389) %13, i32 noundef %79, ptr noundef nonnull align 4 dereferenceable(4) %80)
  %84 = getelementptr inbounds nuw %"class.icu_77::CollationIterator", ptr %13, i32 0, i32 4
  store i32 0, ptr %84, align 8, !tbaa !48
  %85 = load ptr, ptr %9, align 8, !tbaa !22
  %86 = load i32, ptr %85, align 4, !tbaa !15
  %87 = call noundef signext i8 @_ZL9U_SUCCESS10UErrorCode(i32 noundef %86)
  %88 = icmp ne i8 %87, 0
  br i1 %88, label %89, label %96

89:                                               ; preds = %74
  %90 = getelementptr inbounds nuw %"class.icu_77::CollationIterator", ptr %13, i32 0, i32 3
  %91 = getelementptr inbounds nuw %"class.icu_77::CollationIterator", ptr %13, i32 0, i32 3
  %92 = getelementptr inbounds nuw %"class.icu_77::CollationIterator::CEBuffer", ptr %91, i32 0, i32 0
  %93 = load i32, ptr %92, align 8, !tbaa !52
  %94 = add nsw i32 %93, -1
  store i32 %94, ptr %92, align 8, !tbaa !52
  %95 = call noundef i64 @_ZNK6icu_7717CollationIterator8CEBuffer3getEi(ptr noundef nonnull align 8 dereferenceable(344) %90, i32 noundef %94)
  store i64 %95, ptr %5, align 8
  store i32 1, ptr %12, align 4
  br label %97

96:                                               ; preds = %74
  store i64 1, ptr %5, align 8
  store i32 1, ptr %12, align 4
  br label %97

97:                                               ; preds = %96, %89
  call void @llvm.lifetime.end.p0(i64 4, ptr %11) #11
  call void @llvm.lifetime.end.p0(i64 4, ptr %10) #11
  %98 = load i64, ptr %5, align 8
  ret i64 %98
}