; Function Attrs: mustprogress uwtable
define noundef i64 @_ZN6icu_7717CollationIterator16previousCEUnsafeEiRNS_9UVector32ER10UErrorCode(ptr noundef nonnull align 8 dereferenceable(389) %0, i32 %1, ptr noundef nonnull align 8 dereferenceable(32) %2, ptr noundef nonnull align 4 dereferenceable(4) %3) local_unnamed_addr #1 align 2 {
  %5 = getelementptr inbounds nuw i8, ptr %0, i64 16
  %6 = getelementptr inbounds nuw i8, ptr %0, i64 388
  br label %7

7:                                                ; preds = %13, %4
  %.019 = phi i32 [ 1, %4 ], [ %14, %13 ]
  %8 = load ptr, ptr %0, align 8, !tbaa !24
  %9 = getelementptr inbounds nuw i8, ptr %8, i64 56
  %10 = load ptr, ptr %9, align 8
  %11 = tail call noundef i32 %10(ptr noundef nonnull align 8 dereferenceable(389) %0, ptr noundef nonnull align 4 dereferenceable(4) %3)
  %12 = icmp sgt i32 %11, -1
  br i1 %12, label %13, label %18

13:                                               ; preds = %7
  %14 = add nuw nsw i32 %.019, 1
  %15 = load ptr, ptr %5, align 8, !tbaa !32
  %16 = load i8, ptr %6, align 4, !tbaa !36
  %17 = tail call noundef signext i8 @_ZNK6icu_7713CollationData16isUnsafeBackwardEia(ptr noundef nonnull align 8 dereferenceable(140) %15, i32 noundef %11, i8 noundef signext %16)
  %.not = icmp eq i8 %17, 0
  br i1 %.not, label %18, label %7, !llvm.loop !111

18:                                               ; preds = %13, %7
  %.1 = phi i32 [ %14, %13 ], [ %.019, %7 ]
  %19 = getelementptr inbounds nuw i8, ptr %0, i64 384
  store i32 %.1, ptr %19, align 8, !tbaa !35
  %20 = getelementptr inbounds nuw i8, ptr %0, i64 368
  store i32 0, ptr %20, align 8, !tbaa !33
  %21 = load ptr, ptr %0, align 8, !tbaa !24
  %22 = getelementptr inbounds nuw i8, ptr %21, i64 40
  %23 = load ptr, ptr %22, align 8
  %24 = tail call noundef i32 %23(ptr noundef nonnull align 8 dereferenceable(389) %0)
  %25 = load i32, ptr %19, align 8, !tbaa !35
  %26 = icmp sgt i32 %25, 0
  br i1 %26, label %.lr.ph41, label %.._crit_edge_crit_edge

.._crit_edge_crit_edge:                           ; preds = %18
  %.phi.trans.insert = getelementptr inbounds nuw i8, ptr %2, i64 8
  %.pre42 = load i32, ptr %.phi.trans.insert, align 8, !tbaa !106
  br label %._crit_edge

.lr.ph41:                                         ; preds = %18
  %27 = getelementptr inbounds nuw i8, ptr %0, i64 24
  %28 = getelementptr inbounds nuw i8, ptr %2, i64 8
  %29 = getelementptr inbounds nuw i8, ptr %2, i64 12
  %30 = getelementptr inbounds nuw i8, ptr %2, i64 24
  br label %34

.loopexit:                                        ; preds = %_ZN6icu_779UVector3210addElementEiR10UErrorCode.exit31, %_ZN6icu_779UVector3210addElementEiR10UErrorCode.exit
  %31 = phi i32 [ %54, %_ZN6icu_779UVector3210addElementEiR10UErrorCode.exit ], [ %68, %_ZN6icu_779UVector3210addElementEiR10UErrorCode.exit31 ]
  %32 = load i32, ptr %19, align 8, !tbaa !35
  %33 = icmp sgt i32 %32, 0
  br i1 %33, label %34, label %._crit_edge, !llvm.loop !112

34:                                               ; preds = %.lr.ph41, %.loopexit
  %35 = phi i32 [ %25, %.lr.ph41 ], [ %32, %.loopexit ]
  %.040 = phi i32 [ %24, %.lr.ph41 ], [ %53, %.loopexit ]
  %36 = add nsw i32 %35, -1
  store i32 %36, ptr %19, align 8, !tbaa !35
  %37 = tail call noundef i64 @_ZN6icu_7717CollationIterator6nextCEER10UErrorCode(ptr noundef nonnull align 8 dereferenceable(389) %0, ptr noundef nonnull align 4 dereferenceable(4) %3)
  %38 = load i32, ptr %27, align 8, !tbaa !37
  store i32 %38, ptr %20, align 8, !tbaa !33
  %39 = load i32, ptr %28, align 8, !tbaa !106
  %40 = icmp slt i32 %39, -1
  %41 = load i32, ptr %29, align 4
  %.not.i.i = icmp sle i32 %41, %39
  %or.cond.i.i = select i1 %40, i1 true, i1 %.not.i.i
  br i1 %or.cond.i.i, label %_ZN6icu_779UVector3214ensureCapacityEiR10UErrorCode.exit.i, label %_ZN6icu_779UVector3214ensureCapacityEiR10UErrorCode.exit.thread.i

_ZN6icu_779UVector3214ensureCapacityEiR10UErrorCode.exit.i: ; preds = %34
  %42 = add nsw i32 %39, 1
  %43 = tail call noundef signext i8 @_ZN6icu_779UVector3214expandCapacityEiR10UErrorCode(ptr noundef nonnull align 8 dereferenceable(32) %2, i32 noundef %42, ptr noundef nonnull align 4 dereferenceable(4) %3)
  %.not.i = icmp eq i8 %43, 0
  br i1 %.not.i, label %_ZN6icu_779UVector3210addElementEiR10UErrorCode.exit, label %_ZN6icu_779UVector3214ensureCapacityEiR10UErrorCode.exit._ZN6icu_779UVector3214ensureCapacityEiR10UErrorCode.exit.thread_crit_edge.i

_ZN6icu_779UVector3214ensureCapacityEiR10UErrorCode.exit._ZN6icu_779UVector3214ensureCapacityEiR10UErrorCode.exit.thread_crit_edge.i: ; preds = %_ZN6icu_779UVector3214ensureCapacityEiR10UErrorCode.exit.i
  %.pre.i = load i32, ptr %28, align 8, !tbaa !106
  br label %_ZN6icu_779UVector3214ensureCapacityEiR10UErrorCode.exit.thread.i

_ZN6icu_779UVector3214ensureCapacityEiR10UErrorCode.exit.thread.i: ; preds = %_ZN6icu_779UVector3214ensureCapacityEiR10UErrorCode.exit._ZN6icu_779UVector3214ensureCapacityEiR10UErrorCode.exit.thread_crit_edge.i, %34
  %44 = phi i32 [ %.pre.i, %_ZN6icu_779UVector3214ensureCapacityEiR10UErrorCode.exit._ZN6icu_779UVector3214ensureCapacityEiR10UErrorCode.exit.thread_crit_edge.i ], [ %39, %34 ]
  %45 = load ptr, ptr %30, align 8, !tbaa !108
  %46 = sext i32 %44 to i64
  %47 = getelementptr inbounds i32, ptr %45, i64 %46
  store i32 %.040, ptr %47, align 4, !tbaa !12
  %48 = load i32, ptr %28, align 8, !tbaa !106
  %49 = add nsw i32 %48, 1
  store i32 %49, ptr %28, align 8, !tbaa !106
  br label %_ZN6icu_779UVector3210addElementEiR10UErrorCode.exit

_ZN6icu_779UVector3210addElementEiR10UErrorCode.exit: ; preds = %_ZN6icu_779UVector3214ensureCapacityEiR10UErrorCode.exit.i, %_ZN6icu_779UVector3214ensureCapacityEiR10UErrorCode.exit.thread.i
  %50 = load ptr, ptr %0, align 8, !tbaa !24
  %51 = getelementptr inbounds nuw i8, ptr %50, i64 40
  %52 = load ptr, ptr %51, align 8
  %53 = tail call noundef i32 %52(ptr noundef nonnull align 8 dereferenceable(389) %0)
  %54 = load i32, ptr %28, align 8, !tbaa !106
  %55 = load i32, ptr %27, align 8, !tbaa !37
  %56 = icmp slt i32 %54, %55
  br i1 %56, label %.lr.ph, label %.loopexit

.lr.ph:                                           ; preds = %_ZN6icu_779UVector3210addElementEiR10UErrorCode.exit, %_ZN6icu_779UVector3210addElementEiR10UErrorCode.exit31
  %57 = phi i32 [ %68, %_ZN6icu_779UVector3210addElementEiR10UErrorCode.exit31 ], [ %54, %_ZN6icu_779UVector3210addElementEiR10UErrorCode.exit ]
  %58 = icmp slt i32 %57, -1
  %59 = load i32, ptr %29, align 4
  %.not.i.i24 = icmp sle i32 %59, %57
  %or.cond.i.i25 = select i1 %58, i1 true, i1 %.not.i.i24
  br i1 %or.cond.i.i25, label %_ZN6icu_779UVector3214ensureCapacityEiR10UErrorCode.exit.i27, label %_ZN6icu_779UVector3214ensureCapacityEiR10UErrorCode.exit.thread.i26

_ZN6icu_779UVector3214ensureCapacityEiR10UErrorCode.exit.i27: ; preds = %.lr.ph
  %60 = add nsw i32 %57, 1
  %61 = tail call noundef signext i8 @_ZN6icu_779UVector3214expandCapacityEiR10UErrorCode(ptr noundef nonnull align 8 dereferenceable(32) %2, i32 noundef %60, ptr noundef nonnull align 4 dereferenceable(4) %3)
  %.not.i28 = icmp eq i8 %61, 0
  %.pre = load i32, ptr %28, align 8, !tbaa !106
  br i1 %.not.i28, label %_ZN6icu_779UVector3210addElementEiR10UErrorCode.exit31, label %_ZN6icu_779UVector3214ensureCapacityEiR10UErrorCode.exit.thread.i26

_ZN6icu_779UVector3214ensureCapacityEiR10UErrorCode.exit.thread.i26: ; preds = %_ZN6icu_779UVector3214ensureCapacityEiR10UErrorCode.exit.i27, %.lr.ph
  %62 = phi i32 [ %57, %.lr.ph ], [ %.pre, %_ZN6icu_779UVector3214ensureCapacityEiR10UErrorCode.exit.i27 ]
  %63 = load ptr, ptr %30, align 8, !tbaa !108
  %64 = sext i32 %62 to i64
  %65 = getelementptr inbounds i32, ptr %63, i64 %64
  store i32 %53, ptr %65, align 4, !tbaa !12
  %66 = load i32, ptr %28, align 8, !tbaa !106
  %67 = add nsw i32 %66, 1
  store i32 %67, ptr %28, align 8, !tbaa !106
  br label %_ZN6icu_779UVector3210addElementEiR10UErrorCode.exit31

_ZN6icu_779UVector3210addElementEiR10UErrorCode.exit31: ; preds = %_ZN6icu_779UVector3214ensureCapacityEiR10UErrorCode.exit.i27, %_ZN6icu_779UVector3214ensureCapacityEiR10UErrorCode.exit.thread.i26
  %68 = phi i32 [ %.pre, %_ZN6icu_779UVector3214ensureCapacityEiR10UErrorCode.exit.i27 ], [ %67, %_ZN6icu_779UVector3214ensureCapacityEiR10UErrorCode.exit.thread.i26 ]
  %69 = load i32, ptr %27, align 8, !tbaa !37
  %70 = icmp slt i32 %68, %69
  br i1 %70, label %.lr.ph, label %.loopexit, !llvm.loop !113

._crit_edge:                                      ; preds = %.loopexit, %.._crit_edge_crit_edge
  %71 = phi i32 [ %.pre42, %.._crit_edge_crit_edge ], [ %31, %.loopexit ]
  %.0.lcssa = phi i32 [ %24, %.._crit_edge_crit_edge ], [ %53, %.loopexit ]
  %72 = getelementptr inbounds nuw i8, ptr %2, i64 8
  %73 = icmp slt i32 %71, -1
  %74 = getelementptr inbounds nuw i8, ptr %2, i64 12
  %75 = load i32, ptr %74, align 4
  %.not.i.i32 = icmp sle i32 %75, %71
  %or.cond.i.i33 = select i1 %73, i1 true, i1 %.not.i.i32
  br i1 %or.cond.i.i33, label %_ZN6icu_779UVector3214ensureCapacityEiR10UErrorCode.exit.i35, label %_ZN6icu_779UVector3214ensureCapacityEiR10UErrorCode.exit.thread.i34

_ZN6icu_779UVector3214ensureCapacityEiR10UErrorCode.exit.i35: ; preds = %._crit_edge
  %76 = add nsw i32 %71, 1
  %77 = tail call noundef signext i8 @_ZN6icu_779UVector3214expandCapacityEiR10UErrorCode(ptr noundef nonnull align 8 dereferenceable(32) %2, i32 noundef %76, ptr noundef nonnull align 4 dereferenceable(4) %3)
  %.not.i36 = icmp eq i8 %77, 0
  br i1 %.not.i36, label %_ZN6icu_779UVector3210addElementEiR10UErrorCode.exit39, label %_ZN6icu_779UVector3214ensureCapacityEiR10UErrorCode.exit._ZN6icu_779UVector3214ensureCapacityEiR10UErrorCode.exit.thread_crit_edge.i37

_ZN6icu_779UVector3214ensureCapacityEiR10UErrorCode.exit._ZN6icu_779UVector3214ensureCapacityEiR10UErrorCode.exit.thread_crit_edge.i37: ; preds = %_ZN6icu_779UVector3214ensureCapacityEiR10UErrorCode.exit.i35
  %.pre.i38 = load i32, ptr %72, align 8, !tbaa !106
  br label %_ZN6icu_779UVector3214ensureCapacityEiR10UErrorCode.exit.thread.i34

_ZN6icu_779UVector3214ensureCapacityEiR10UErrorCode.exit.thread.i34: ; preds = %_ZN6icu_779UVector3214ensureCapacityEiR10UErrorCode.exit._ZN6icu_779UVector3214ensureCapacityEiR10UErrorCode.exit.thread_crit_edge.i37, %._crit_edge
  %78 = phi i32 [ %.pre.i38, %_ZN6icu_779UVector3214ensureCapacityEiR10UErrorCode.exit._ZN6icu_779UVector3214ensureCapacityEiR10UErrorCode.exit.thread_crit_edge.i37 ], [ %71, %._crit_edge ]
  %79 = getelementptr inbounds nuw i8, ptr %2, i64 24
  %80 = load ptr, ptr %79, align 8, !tbaa !108
  %81 = sext i32 %78 to i64
  %82 = getelementptr inbounds i32, ptr %80, i64 %81
  store i32 %.0.lcssa, ptr %82, align 4, !tbaa !12
  %83 = load i32, ptr %72, align 8, !tbaa !106
  %84 = add nsw i32 %83, 1
  store i32 %84, ptr %72, align 8, !tbaa !106
  br label %_ZN6icu_779UVector3210addElementEiR10UErrorCode.exit39

_ZN6icu_779UVector3210addElementEiR10UErrorCode.exit39: ; preds = %_ZN6icu_779UVector3214ensureCapacityEiR10UErrorCode.exit.i35, %_ZN6icu_779UVector3214ensureCapacityEiR10UErrorCode.exit.thread.i34
  store i32 -1, ptr %19, align 8, !tbaa !35
  %85 = load ptr, ptr %0, align 8, !tbaa !24
  %86 = getelementptr inbounds nuw i8, ptr %85, i64 104
  %87 = load ptr, ptr %86, align 8
  tail call void %87(ptr noundef nonnull align 8 dereferenceable(389) %0, i32 noundef %.1, ptr noundef nonnull align 4 dereferenceable(4) %3)
  store i32 0, ptr %20, align 8, !tbaa !33
  %88 = load i32, ptr %3, align 4, !tbaa !13
  %89 = icmp sgt i32 %88, 0
  br i1 %89, label %99, label %90

90:                                               ; preds = %_ZN6icu_779UVector3210addElementEiR10UErrorCode.exit39
  %91 = getelementptr inbounds nuw i8, ptr %0, i64 24
  %92 = load i32, ptr %91, align 8, !tbaa !37
  %93 = add nsw i32 %92, -1
  store i32 %93, ptr %91, align 8, !tbaa !37
  %94 = getelementptr inbounds nuw i8, ptr %0, i64 32
  %95 = sext i32 %93 to i64
  %96 = load ptr, ptr %94, align 8, !tbaa !18
  %97 = getelementptr inbounds i64, ptr %96, i64 %95
  %98 = load i64, ptr %97, align 8, !tbaa !38
  br label %99

99:                                               ; preds = %_ZN6icu_779UVector3210addElementEiR10UErrorCode.exit39, %90
  %.020 = phi i64 [ %98, %90 ], [ 1, %_ZN6icu_779UVector3210addElementEiR10UErrorCode.exit39 ]
  ret i64 %.020
}